target datalayout = "e-m:e-p270:32:32-p271:32:32-p272:64:64-i64:64-i128:128-f80:128-n8:16:32:64-S128"
target triple = "x86_64-pc-linux-gnu"

%struct._radius_attr_info_t = type { ptr, %union._radius_attr_type_t, i32, i8, i8, ptr, ptr, ptr, i32, i32, i32, i32, i32, i32, ptr }
%union._radius_attr_type_t = type { i32 }
%struct._value_string = type { i32, ptr }

; Function Attrs: null_pointer_is_valid sspstrong uwtable
define hidden void @free_radius_attr_info(ptr noundef %0) #0 {
  %2 = alloca ptr, align 8
  %3 = alloca ptr, align 8
  %4 = alloca ptr, align 8
  store ptr %0, ptr %2, align 8
  call void @llvm.lifetime.start.p0(i64 8, ptr %3) #17
  %5 = load ptr, ptr %2, align 8
  store ptr %5, ptr %3, align 8
  call void @llvm.lifetime.start.p0(i64 8, ptr %4) #17
  %6 = load ptr, ptr %3, align 8
  %7 = getelementptr inbounds nuw %struct._radius_attr_info_t, ptr %6, i32 0, i32 7
  %8 = load ptr, ptr %7, align 8
  store ptr %8, ptr %4, align 8
  %9 = load ptr, ptr %3, align 8
  %10 = getelementptr inbounds nuw %struct._radius_attr_info_t, ptr %9, i32 0, i32 0
  %11 = load ptr, ptr %10, align 8
  call void @g_free(ptr noundef %11)
  %12 = load ptr, ptr %3, align 8
  %13 = getelementptr inbounds nuw %struct._radius_attr_info_t, ptr %12, i32 0, i32 14
  %14 = load ptr, ptr %13, align 8
  %15 = icmp ne ptr %14, null
  br i1 %15, label %16, label %20

16:                                               ; preds = %1
  %17 = load ptr, ptr %3, align 8
  %18 = getelementptr inbounds nuw %struct._radius_attr_info_t, ptr %17, i32 0, i32 14
  %19 = load ptr, ptr %18, align 8
  call void @g_hash_table_destroy(ptr noundef %19)
  br label %20

20:                                               ; preds = %16, %1
  %21 = load ptr, ptr %4, align 8
  %22 = icmp ne ptr %21, null
  br i1 %22, label %23, label %40

23:                                               ; preds = %20
  br label %24

24:                                               ; preds = %33, %23
  %25 = load ptr, ptr %4, align 8
  %26 = getelementptr inbounds nuw %struct._value_string, ptr %25, i32 0, i32 1
  %27 = load ptr, ptr %26, align 8
  %28 = icmp ne ptr %27, null
  br i1 %28, label %29, label %36

29:                                               ; preds = %24
  %30 = load ptr, ptr %4, align 8
  %31 = getelementptr inbounds nuw %struct._value_string, ptr %30, i32 0, i32 1
  %32 = load ptr, ptr %31, align 8
  call void @g_free(ptr noundef %32)
  br label %33

33:                                               ; preds = %29
  %34 = load ptr, ptr %4, align 8
  %35 = getelementptr %struct._value_string, ptr %34, i32 1
  store ptr %35, ptr %4, align 8
  br label %24, !llvm.loop !13

36:                                               ; preds = %24
  %37 = load ptr, ptr %3, align 8
  %38 = getelementptr inbounds nuw %struct._radius_attr_info_t, ptr %37, i32 0, i32 7
  %39 = load ptr, ptr %38, align 8
  call void @g_free(ptr noundef %39)
  br label %40

40:                                               ; preds = %36, %20
  %41 = load ptr, ptr %3, align 8
  call void @g_free(ptr noundef %41)
  call void @llvm.lifetime.end.p0(i64 8, ptr %4) #17
  call void @llvm.lifetime.end.p0(i64 8, ptr %3) #17
  ret void
}