; Function Attrs: null_pointer_is_valid sspstrong uwtable
define hidden void @free_radius_attr_info(ptr noundef %0) #0 {
  %2 = getelementptr inbounds nuw i8, ptr %0, i64 40
  %3 = load ptr, ptr %2, align 8
  %4 = load ptr, ptr %0, align 8
  tail call void @g_free(ptr noundef %4)
  %5 = getelementptr inbounds nuw i8, ptr %0, i64 72
  %6 = load ptr, ptr %5, align 8
  %.not = icmp eq ptr %6, null
  br i1 %.not, label %8, label %7

7:                                                ; preds = %1
  tail call void @g_hash_table_destroy(ptr noundef nonnull %6)
  br label %8

8:                                                ; preds = %7, %1
  %.not14 = icmp eq ptr %3, null
  br i1 %.not14, label %16, label %.preheader

.preheader:                                       ; preds = %8
  %9 = getelementptr inbounds nuw i8, ptr %3, i64 8
  %10 = load ptr, ptr %9, align 8
  %.not1516 = icmp eq ptr %10, null
  br i1 %.not1516, label %._crit_edge, label %.lr.ph

.lr.ph:                                           ; preds = %.preheader, %.lr.ph
  %11 = phi ptr [ %14, %.lr.ph ], [ %10, %.preheader ]
  %.017 = phi ptr [ %12, %.lr.ph ], [ %3, %.preheader ]
  tail call void @g_free(ptr noundef nonnull %11)
  %12 = getelementptr i8, ptr %.017, i64 16
  %13 = getelementptr i8, ptr %.017, i64 24
  %14 = load ptr, ptr %13, align 8
  %.not15 = icmp eq ptr %14, null
  br i1 %.not15, label %._crit_edge, label %.lr.ph, !llvm.loop !12

._crit_edge:                                      ; preds = %.lr.ph, %.preheader
  %15 = load ptr, ptr %2, align 8
  tail call void @g_free(ptr noundef %15)
  br label %16

16:                                               ; preds = %._crit_edge, %8
  tail call void @g_free(ptr noundef %0)
  ret void
}